target datalayout = "e-m:e-p270:32:32-p271:32:32-p272:64:64-i64:64-i128:128-f80:128-n8:16:32:64-S128"
target triple = "x86_64-unknown-linux-gnu"

; Function Attrs: nounwind sspstrong uwtable
define dso_local void @ram_handle_zero(ptr noundef %host, i64 noundef %size) #0 {
entry:
  %host.addr = alloca ptr, align 8
  %size.addr = alloca i64, align 8
  store ptr %host, ptr %host.addr, align 8
  store i64 %size, ptr %size.addr, align 8
  %0 = load ptr, ptr %host.addr, align 8
  %1 = load i64, ptr %size.addr, align 8
  %call = call zeroext i1 @buffer_is_zero(ptr noundef %0, i64 noundef %1)
  br i1 %call, label %if.end, label %if.then

if.then:                                          ; preds = %entry
  %2 = load ptr, ptr %host.addr, align 8
  %3 = load i64, ptr %size.addr, align 8
  call void @llvm.memset.p0.i64(ptr align 1 %2, i8 0, i64 %3, i1 false)
  br label %if.end

if.end:                                           ; preds = %if.then, %entry
  ret void
}