; Function Attrs: nounwind sspstrong uwtable
define dso_local void @ram_handle_zero(ptr noundef %host, i64 noundef %size) local_unnamed_addr #0 {
entry:
  %call = tail call zeroext i1 @buffer_is_zero(ptr noundef %host, i64 noundef %size) #18
  br i1 %call, label %if.end, label %if.then

if.then:                                          ; preds = %entry
  tail call void @llvm.memset.p0.i64(ptr align 1 %host, i8 0, i64 %size, i1 false)
  br label %if.end

if.end:                                           ; preds = %if.then, %entry
  ret void
}